target datalayout = "e-m:e-p270:32:32-p271:32:32-p272:64:64-i64:64-i128:128-f80:128-n8:16:32:64-S128"
target triple = "x86_64-pc-linux-gnu"

%struct.ident_t = type { i32, i32, i32, i32, ptr }
%"class.gmx::BasicVector" = type { [3 x float] }
%"class.gmx::ArrayRef.103" = type { %"struct.gmx::ArrayRefIter.104", %"struct.gmx::ArrayRefIter.104" }
%"struct.gmx::ArrayRefIter.104" = type { ptr }
%"class.gmx::ArrayRef.216" = type { %"struct.gmx::ArrayRefIter.217", %"struct.gmx::ArrayRefIter.217" }
%"struct.gmx::ArrayRefIter.217" = type { ptr }

@1 = private unnamed_addr constant %struct.ident_t { i32 0, i32 514, i32 0, i32 22, ptr @0 }, align 8

; Function Attrs: mustprogress nounwind uwtable
define linkonce_odr noundef nonnull align 4 dereferenceable(12) ptr @_ZNK3gmx12ArrayRefIterINS_11BasicVectorIfEEEdeEv(ptr noundef nonnull align 8 dereferenceable(8) %0) #3 comdat align 2 {
  %2 = alloca ptr, align 8
  store ptr %0, ptr %2, align 8
  %3 = load ptr, ptr %2, align 8
  %4 = getelementptr inbounds %"struct.gmx::ArrayRefIter.217", ptr %3, i32 0, i32 0
  %5 = load ptr, ptr %4, align 8
  ret ptr %5
}

; Function Attrs: mustprogress nounwind uwtable
define linkonce_odr noundef nonnull align 8 dereferenceable(8) ptr @_ZN3gmx12ArrayRefIterINS_11BasicVectorIfEEEpLEl(ptr noundef nonnull align 8 dereferenceable(8) %0, i64 noundef %1) #3 comdat align 2 {
  %3 = alloca ptr, align 8
  %4 = alloca i64, align 8
  store ptr %0, ptr %3, align 8
  store i64 %1, ptr %4, align 8
  %5 = load ptr, ptr %3, align 8
  %6 = load i64, ptr %4, align 8
  %7 = getelementptr inbounds %"struct.gmx::ArrayRefIter.217", ptr %5, i32 0, i32 0
  %8 = load ptr, ptr %7, align 8
  %9 = getelementptr inbounds %"class.gmx::BasicVector", ptr %8, i64 %6
  store ptr %9, ptr %7, align 8
  ret ptr %5
}

; Function Attrs: mustprogress nounwind uwtable
define linkonce_odr noundef nonnull align 8 dereferenceable(8) ptr @_ZNK3gmx5boost14stl_interfaces2v118iterator_interfaceINS_12ArrayRefIterINS_11BasicVectorIfEEEESt26random_access_iterator_tagS6_RS6_PS6_lvE7derivedEv(ptr noundef nonnull align 1 dereferenceable(1) %0) #3 comdat align 2 {
  %2 = alloca ptr, align 8
  store ptr %0, ptr %2, align 8
  %3 = load ptr, ptr %2, align 8
  ret ptr %3
}

; Function Attrs: mustprogress nounwind uwtable
define linkonce_odr noundef nonnull align 4 dereferenceable(12) ptr @_ZNK3gmx12ArrayRefIterIKNS_11BasicVectorIfEEEdeEv(ptr noundef nonnull align 8 dereferenceable(8) %0) #3 comdat align 2 {
  %2 = alloca ptr, align 8
  store ptr %0, ptr %2, align 8
  %3 = load ptr, ptr %2, align 8
  %4 = getelementptr inbounds %"struct.gmx::ArrayRefIter.104", ptr %3, i32 0, i32 0
  %5 = load ptr, ptr %4, align 8
  ret ptr %5
}

; Function Attrs: mustprogress nounwind uwtable
define linkonce_odr noundef nonnull align 8 dereferenceable(8) ptr @_ZN3gmx12ArrayRefIterIKNS_11BasicVectorIfEEEpLEl(ptr noundef nonnull align 8 dereferenceable(8) %0, i64 noundef %1) #3 comdat align 2 {
  %3 = alloca ptr, align 8
  %4 = alloca i64, align 8
  store ptr %0, ptr %3, align 8
  store i64 %1, ptr %4, align 8
  %5 = load ptr, ptr %3, align 8
  %6 = load i64, ptr %4, align 8
  %7 = getelementptr inbounds %"struct.gmx::ArrayRefIter.104", ptr %5, i32 0, i32 0
  %8 = load ptr, ptr %7, align 8
  %9 = getelementptr inbounds %"class.gmx::BasicVector", ptr %8, i64 %6
  store ptr %9, ptr %7, align 8
  ret ptr %5
}

; Function Attrs: mustprogress nounwind uwtable
define linkonce_odr noundef nonnull align 8 dereferenceable(8) ptr @_ZNK3gmx5boost14stl_interfaces2v118iterator_interfaceINS_12ArrayRefIterIKNS_11BasicVectorIfEEEESt26random_access_iterator_tagS7_RS7_PS7_lvE7derivedEv(ptr noundef nonnull align 1 dereferenceable(1) %0) #3 comdat align 2 {
  %2 = alloca ptr, align 8
  store ptr %0, ptr %2, align 8
  %3 = load ptr, ptr %2, align 8
  ret ptr %3
}

; Function Attrs: mustprogress nounwind uwtable
define linkonce_odr noundef nonnull align 4 dereferenceable(12) ptr @_ZNK3gmx5boost14stl_interfaces2v118iterator_interfaceINS_12ArrayRefIterINS_11BasicVectorIfEEEESt26random_access_iterator_tagS6_RS6_PS6_lvEixIS7_EEDTcmpLclsr3stdE7declvalIRT_EEfp_declsr3stdE7declvalISE_EEEl(ptr noundef nonnull align 1 dereferenceable(1) %0, i64 noundef %1) #3 comdat align 2 {
  %3 = alloca ptr, align 8
  %4 = alloca i64, align 8
  %5 = alloca %"struct.gmx::ArrayRefIter.217", align 8
  store ptr %0, ptr %3, align 8
  store i64 %1, ptr %4, align 8
  %6 = load ptr, ptr %3, align 8
  %7 = call noundef nonnull align 8 dereferenceable(8) ptr @_ZNK3gmx5boost14stl_interfaces2v118iterator_interfaceINS_12ArrayRefIterINS_11BasicVectorIfEEEESt26random_access_iterator_tagS6_RS6_PS6_lvE7derivedEv(ptr noundef nonnull align 1 dereferenceable(1) %6) #13
  call void @llvm.memcpy.p0.p0.i64(ptr align 8 %5, ptr align 8 %7, i64 8, i1 false)
  %8 = load i64, ptr %4, align 8
  %9 = call noundef nonnull align 8 dereferenceable(8) ptr @_ZN3gmx12ArrayRefIterINS_11BasicVectorIfEEEpLEl(ptr noundef nonnull align 8 dereferenceable(8) %5, i64 noundef %8) #13
  %10 = call noundef nonnull align 4 dereferenceable(12) ptr @_ZNK3gmx12ArrayRefIterINS_11BasicVectorIfEEEdeEv(ptr noundef nonnull align 8 dereferenceable(8) %5) #13
  ret ptr %10
}

; Function Attrs: mustprogress nounwind uwtable
define linkonce_odr noundef nonnull align 4 dereferenceable(12) ptr @_ZNK3gmx5boost14stl_interfaces2v118iterator_interfaceINS_12ArrayRefIterIKNS_11BasicVectorIfEEEESt26random_access_iterator_tagS7_RS7_PS7_lvEixIS8_EEDTcmpLclsr3stdE7declvalIRT_EEfp_declsr3stdE7declvalISF_EEEl(ptr noundef nonnull align 1 dereferenceable(1) %0, i64 noundef %1) #3 comdat align 2 {
  %3 = alloca ptr, align 8
  %4 = alloca i64, align 8
  %5 = alloca %"struct.gmx::ArrayRefIter.104", align 8
  store ptr %0, ptr %3, align 8
  store i64 %1, ptr %4, align 8
  %6 = load ptr, ptr %3, align 8
  %7 = call noundef nonnull align 8 dereferenceable(8) ptr @_ZNK3gmx5boost14stl_interfaces2v118iterator_interfaceINS_12ArrayRefIterIKNS_11BasicVectorIfEEEESt26random_access_iterator_tagS7_RS7_PS7_lvE7derivedEv(ptr noundef nonnull align 1 dereferenceable(1) %6) #13
  call void @llvm.memcpy.p0.p0.i64(ptr align 8 %5, ptr align 8 %7, i64 8, i1 false)
  %8 = load i64, ptr %4, align 8
  %9 = call noundef nonnull align 8 dereferenceable(8) ptr @_ZN3gmx12ArrayRefIterIKNS_11BasicVectorIfEEEpLEl(ptr noundef nonnull align 8 dereferenceable(8) %5, i64 noundef %8) #13
  %10 = call noundef nonnull align 4 dereferenceable(12) ptr @_ZNK3gmx12ArrayRefIterIKNS_11BasicVectorIfEEEdeEv(ptr noundef nonnull align 8 dereferenceable(8) %5) #13
  ret ptr %10
}

; Function Attrs: noreturn nounwind uwtable
define linkonce_odr hidden void @__clang_call_terminate(ptr noundef %0) #4 comdat {
  %2 = call ptr @__cxa_begin_catch(ptr %0) #13
  call void @_ZSt9terminatev() #22
  unreachable
}

; Function Attrs: mustprogress nounwind uwtable
define linkonce_odr noundef nonnull align 4 dereferenceable(12) ptr @_ZNK3gmx8ArrayRefINS_11BasicVectorIfEEEixEm(ptr noundef nonnull align 8 dereferenceable(16) %0, i64 noundef %1) #3 comdat align 2 {
  %3 = alloca ptr, align 8
  %4 = alloca i64, align 8
  store ptr %0, ptr %3, align 8
  store i64 %1, ptr %4, align 8
  %5 = load ptr, ptr %3, align 8
  %6 = getelementptr inbounds %"class.gmx::ArrayRef.216", ptr %5, i32 0, i32 0
  %7 = load i64, ptr %4, align 8
  %8 = call noundef nonnull align 4 dereferenceable(12) ptr @_ZNK3gmx5boost14stl_interfaces2v118iterator_interfaceINS_12ArrayRefIterINS_11BasicVectorIfEEEESt26random_access_iterator_tagS6_RS6_PS6_lvEixIS7_EEDTcmpLclsr3stdE7declvalIRT_EEfp_declsr3stdE7declvalISE_EEEl(ptr noundef nonnull align 1 dereferenceable(1) %6, i64 noundef %7) #13
  ret ptr %8
}

; Function Attrs: mustprogress nounwind uwtable
define linkonce_odr noundef nonnull align 4 dereferenceable(12) ptr @_ZNK3gmx8ArrayRefIKNS_11BasicVectorIfEEEixEm(ptr noundef nonnull align 8 dereferenceable(16) %0, i64 noundef %1) #3 comdat align 2 {
  %3 = alloca ptr, align 8
  %4 = alloca i64, align 8
  store ptr %0, ptr %3, align 8
  store i64 %1, ptr %4, align 8
  %5 = load ptr, ptr %3, align 8
  %6 = getelementptr inbounds %"class.gmx::ArrayRef.103", ptr %5, i32 0, i32 0
  %7 = load i64, ptr %4, align 8
  %8 = call noundef nonnull align 4 dereferenceable(12) ptr @_ZNK3gmx5boost14stl_interfaces2v118iterator_interfaceINS_12ArrayRefIterIKNS_11BasicVectorIfEEEESt26random_access_iterator_tagS7_RS7_PS7_lvEixIS8_EEDTcmpLclsr3stdE7declvalIRT_EEfp_declsr3stdE7declvalISF_EEEl(ptr noundef nonnull align 1 dereferenceable(1) %6, i64 noundef %7) #13
  ret ptr %8
}

; Function Attrs: norecurse nounwind uwtable
define internal void @_ZN3gmx6Update4Impl13finish_updateERK10t_inputrecbiNS_8ArrayRefIKtEEP7t_stateP13gmx_wallcycleb.omp_outlined(ptr noalias noundef %0, ptr noalias noundef %1, ptr noundef nonnull align 4 dereferenceable(4) %2, ptr noundef nonnull align 8 dereferenceable(16) %3, ptr noundef nonnull align 8 dereferenceable(16) %4) #12 personality ptr @__gxx_personality_v0 {
  %6 = alloca ptr, align 8
  %7 = alloca ptr, align 8
  %8 = alloca ptr, align 8
  %9 = alloca ptr, align 8
  %10 = alloca ptr, align 8
  %11 = alloca i32, align 4
  %12 = alloca i32, align 4
  %13 = alloca i32, align 4
  %14 = alloca i32, align 4
  %15 = alloca i32, align 4
  %16 = alloca i32, align 4
  %17 = alloca i32, align 4
  %18 = alloca i32, align 4
  %19 = alloca i32, align 4
  store ptr %0, ptr %6, align 8
  store ptr %1, ptr %7, align 8
  store ptr %2, ptr %8, align 8
  store ptr %3, ptr %9, align 8
  store ptr %4, ptr %10, align 8
  %20 = load ptr, ptr %8, align 8
  %21 = load ptr, ptr %9, align 8
  %22 = load ptr, ptr %10, align 8
  %23 = load i32, ptr %20, align 4
  store i32 %23, ptr %12, align 4
  %24 = load i32, ptr %12, align 4
  %25 = sub nsw i32 %24, 0
  %26 = sdiv i32 %25, 1
  %27 = sub nsw i32 %26, 1
  store i32 %27, ptr %13, align 4
  store i32 0, ptr %14, align 4
  %28 = load i32, ptr %12, align 4
  %29 = icmp slt i32 0, %28
  br i1 %29, label %30, label %68

30:                                               ; preds = %5
  store i32 0, ptr %15, align 4
  %31 = load i32, ptr %13, align 4
  store i32 %31, ptr %16, align 4
  store i32 1, ptr %17, align 4
  store i32 0, ptr %18, align 4
  %32 = load ptr, ptr %6, align 8
  %33 = load i32, ptr %32, align 4
  call void @__kmpc_for_static_init_4(ptr @1, i32 %33, i32 34, ptr %18, ptr %15, ptr %16, ptr %17, i32 1, i32 1)
  %34 = load i32, ptr %16, align 4
  %35 = load i32, ptr %13, align 4
  %36 = icmp sgt i32 %34, %35
  br i1 %36, label %37, label %39

37:                                               ; preds = %30
  %38 = load i32, ptr %13, align 4
  br label %41

39:                                               ; preds = %30
  %40 = load i32, ptr %16, align 4
  br label %41

41:                                               ; preds = %39, %37
  %42 = phi i32 [ %38, %37 ], [ %40, %39 ]
  store i32 %42, ptr %16, align 4
  %43 = load i32, ptr %15, align 4
  store i32 %43, ptr %11, align 4
  br label %44

44:                                               ; preds = %61, %41
  %45 = load i32, ptr %11, align 4
  %46 = load i32, ptr %16, align 4
  %47 = icmp sle i32 %45, %46
  br i1 %47, label %48, label %64

48:                                               ; preds = %44
  %49 = load i32, ptr %11, align 4
  %50 = mul nsw i32 %49, 1
  %51 = add nsw i32 0, %50
  store i32 %51, ptr %19, align 4
  %52 = load i32, ptr %19, align 4
  %53 = sext i32 %52 to i64
  %54 = invoke noundef nonnull align 4 dereferenceable(12) ptr @_ZNK3gmx8ArrayRefIKNS_11BasicVectorIfEEEixEm(ptr noundef nonnull align 8 dereferenceable(16) %22, i64 noundef %53)
          to label %55 unwind label %69

55:                                               ; preds = %48
  %56 = load i32, ptr %19, align 4
  %57 = sext i32 %56 to i64
  %58 = invoke noundef nonnull align 4 dereferenceable(12) ptr @_ZNK3gmx8ArrayRefINS_11BasicVectorIfEEEixEm(ptr noundef nonnull align 8 dereferenceable(16) %21, i64 noundef %57)
          to label %59 unwind label %69

59:                                               ; preds = %55
  call void @llvm.memcpy.p0.p0.i64(ptr align 4 %58, ptr align 4 %54, i64 12, i1 false)
  br label %60

60:                                               ; preds = %59
  br label %61

61:                                               ; preds = %60
  %62 = load i32, ptr %11, align 4
  %63 = add nsw i32 %62, 1
  store i32 %63, ptr %11, align 4
  br label %44

64:                                               ; preds = %44
  br label %65

65:                                               ; preds = %64
  %66 = load ptr, ptr %6, align 8
  %67 = load i32, ptr %66, align 4
  call void @__kmpc_for_static_fini(ptr @1, i32 %67)
  br label %68

68:                                               ; preds = %65, %5
  ret void

69:                                               ; preds = %55, %48
  %70 = landingpad { ptr, i32 }
          catch ptr null
  %71 = extractvalue { ptr, i32 } %70, 0
  call void @__clang_call_terminate(ptr %71) #22
  unreachable
}