; Function Attrs: norecurse nounwind uwtable
define internal void @_ZN3gmx6Update4Impl13finish_updateERK10t_inputrecbiNS_8ArrayRefIKtEEP7t_stateP13gmx_wallcycleb.omp_outlined(ptr noalias nocapture noundef readonly %0, ptr noalias nocapture readnone %1, ptr nocapture noundef nonnull readonly align 4 dereferenceable(4) %2, ptr nocapture noundef nonnull readonly align 8 dereferenceable(16) %3, ptr nocapture noundef nonnull readonly align 8 dereferenceable(16) %4) #16 personality ptr @__gxx_personality_v0 {
  %6 = alloca i32, align 4
  %7 = alloca i32, align 4
  %8 = alloca i32, align 4
  %9 = alloca i32, align 4
  %10 = load i32, ptr %2, align 4
  %11 = icmp sgt i32 %10, 0
  br i1 %11, label %12, label %26

12:                                               ; preds = %5
  %13 = add nsw i32 %10, -1
  store i32 0, ptr %6, align 4
  store i32 %13, ptr %7, align 4
  store i32 1, ptr %8, align 4
  store i32 0, ptr %9, align 4
  %14 = load i32, ptr %0, align 4
  call void @__kmpc_for_static_init_4(ptr nonnull @1, i32 %14, i32 34, ptr nonnull %9, ptr nonnull %6, ptr nonnull %7, ptr nonnull %8, i32 1, i32 1)
  %15 = load i32, ptr %7, align 4
  %16 = call i32 @llvm.smin.i32(i32 %15, i32 %13)
  store i32 %16, ptr %7, align 4
  %17 = load i32, ptr %6, align 4
  %.not14 = icmp sgt i32 %17, %16
  br i1 %.not14, label %._crit_edge, label %.lr.ph.preheader

.lr.ph.preheader:                                 ; preds = %12
  %18 = sext i32 %17 to i64
  %19 = add nsw i32 %16, 1
  br label %.lr.ph

.lr.ph:                                           ; preds = %.lr.ph.preheader, %.lr.ph
  %indvars.iv = phi i64 [ %18, %.lr.ph.preheader ], [ %indvars.iv.next, %.lr.ph ]
  %20 = load i64, ptr %4, align 8
  %21 = inttoptr i64 %20 to ptr
  %22 = getelementptr inbounds %"class.gmx::BasicVector", ptr %21, i64 %indvars.iv
  %23 = load i64, ptr %3, align 8
  %24 = inttoptr i64 %23 to ptr
  %25 = getelementptr inbounds %"class.gmx::BasicVector", ptr %24, i64 %indvars.iv
  call void @llvm.memcpy.p0.p0.i64(ptr noundef nonnull align 4 dereferenceable(12) %25, ptr noundef nonnull align 4 dereferenceable(12) %22, i64 12, i1 false)
  %indvars.iv.next = add nsw i64 %indvars.iv, 1
  %lftr.wideiv = trunc i64 %indvars.iv.next to i32
  %exitcond.not = icmp eq i32 %19, %lftr.wideiv
  br i1 %exitcond.not, label %._crit_edge, label %.lr.ph

._crit_edge:                                      ; preds = %.lr.ph, %12
  call void @__kmpc_for_static_fini(ptr nonnull @1, i32 %14)
  br label %26

26:                                               ; preds = %._crit_edge, %5
  ret void
}